; Function Attrs: mustprogress nounwind uwtable
define dso_local noundef nonnull ptr @_Z19V3PreLex_scan_bytesPKci(ptr noundef readonly captures(none) %0, i32 noundef %1) local_unnamed_addr #7 {
  %3 = add nsw i32 %1, 2
  %4 = sext i32 %3 to i64
  %5 = tail call noalias noundef ptr @malloc(i64 noundef %4) #41
  %.not = icmp eq ptr %5, null
  br i1 %.not, label %9, label %.preheader

.preheader:                                       ; preds = %2
  %.not26 = icmp eq i32 %1, 0
  %6 = zext i32 %1 to i64
  br i1 %.not26, label %._crit_edge.thread, label %._crit_edge

._crit_edge.thread:                               ; preds = %.preheader
  %7 = getelementptr i8, ptr %5, i64 %6
  %8 = getelementptr i8, ptr %7, i64 1
  store i8 0, ptr %8, align 1, !tbaa !27
  store i8 0, ptr %7, align 1, !tbaa !27
  br label %14

9:                                                ; preds = %2
  tail call fastcc void @_ZL14yy_fatal_errorPKc(ptr noundef nonnull @.str.37) #42
  unreachable

._crit_edge:                                      ; preds = %.preheader
  tail call void @llvm.memcpy.p0.p0.i64(ptr nonnull align 1 %5, ptr align 1 %0, i64 %6, i1 false), !tbaa !27
  %10 = sext i32 %1 to i64
  %11 = getelementptr i8, ptr %5, i64 %10
  %12 = getelementptr i8, ptr %11, i64 1
  store i8 0, ptr %12, align 1, !tbaa !27
  store i8 0, ptr %11, align 1, !tbaa !27
  %13 = icmp ugt i32 %1, -3
  br i1 %13, label %17, label %14

14:                                               ; preds = %._crit_edge.thread, %._crit_edge
  %15 = tail call noalias noundef dereferenceable_or_null(64) ptr @malloc(i64 noundef 64) #41
  %.not24.i = icmp eq ptr %15, null
  br i1 %.not24.i, label %16, label %18

16:                                               ; preds = %14
  tail call fastcc void @_ZL14yy_fatal_errorPKc(ptr noundef nonnull @.str.36) #42
  unreachable

17:                                               ; preds = %._crit_edge
  tail call fastcc void @_ZL14yy_fatal_errorPKc(ptr noundef nonnull @.str.38) #42
  unreachable

18:                                               ; preds = %14
  %19 = getelementptr inbounds nuw i8, ptr %15, i64 24
  store i32 %1, ptr %19, align 8, !tbaa !20
  %20 = getelementptr inbounds nuw i8, ptr %15, i64 8
  store ptr %5, ptr %20, align 8, !tbaa !22
  %21 = getelementptr inbounds nuw i8, ptr %15, i64 16
  store ptr %5, ptr %21, align 8, !tbaa !25
  %22 = getelementptr inbounds nuw i8, ptr %15, i64 32
  store i32 0, ptr %22, align 8, !tbaa !23
  store ptr null, ptr %15, align 8, !tbaa !26
  %23 = getelementptr inbounds nuw i8, ptr %15, i64 28
  store i32 %1, ptr %23, align 4, !tbaa !24
  %24 = getelementptr inbounds nuw i8, ptr %15, i64 36
  store i32 0, ptr %24, align 4, !tbaa !754
  %25 = getelementptr inbounds nuw i8, ptr %15, i64 40
  store i32 1, ptr %25, align 8, !tbaa !28
  %26 = getelementptr inbounds nuw i8, ptr %15, i64 52
  store i32 0, ptr %26, align 4, !tbaa !679
  %27 = getelementptr inbounds nuw i8, ptr %15, i64 56
  store i32 0, ptr %27, align 8, !tbaa !675
  tail call void @_Z25V3PreLex_switch_to_bufferP15yy_buffer_state(ptr noundef nonnull %15)
  store i32 1, ptr %22, align 8, !tbaa !23
  ret ptr %15
}